target datalayout = "e-m:e-p270:32:32-p271:32:32-p272:64:64-i64:64-i128:128-f80:128-n8:16:32:64-S128"
target triple = "x86_64-pc-linux-gnu"

@H5_libterm_g = external global i8, align 1
@.str.1 = private unnamed_addr constant [101 x i8] c"generated/home/dtcxzyw/WorkSpace/Projects/compilers/llvm-opt-benchmark/bench/hdf5/hdf5/src/H5Pocpl.c\00", align 1
@H5P_init_g = external global i8, align 1
@.str.9 = private unnamed_addr constant [17 x i8] c"max compact attr\00", align 1
@H5E_PLIST_g = external global i64, align 8
@.str.11 = private unnamed_addr constant [15 x i8] c"min dense attr\00", align 1
@.str.16 = private unnamed_addr constant [20 x i8] c"object header flags\00", align 1
@.str.19 = private unnamed_addr constant [6 x i8] c"pline\00", align 1
@H5O_def_attr_max_compact_g = internal constant i32 8, align 4
@__func__.H5P__ocrt_reg_prop = private unnamed_addr constant [19 x i8] c"H5P__ocrt_reg_prop\00", align 1
@H5E_CANTINSERT_g = external global i64, align 8
@.str.41 = private unnamed_addr constant [33 x i8] c"can't insert property into class\00", align 1
@H5O_def_attr_min_dense_g = internal constant i32 6, align 4
@H5O_def_ohdr_flags_g = internal constant i8 32, align 1

; Function Attrs: nounwind uwtable
define internal i32 @H5P__ocrt_reg_prop(ptr noundef %0) #0 {
  %2 = alloca ptr, align 8
  %3 = alloca i32, align 4
  %4 = alloca i8, align 1
  store ptr %0, ptr %2, align 8, !tbaa !3
  call void @llvm.lifetime.start.p0(i64 4, ptr %3) #10
  store i32 0, ptr %3, align 4, !tbaa !8
  call void @llvm.lifetime.start.p0(i64 1, ptr %4) #10
  store i8 0, ptr %4, align 1, !tbaa !10
  %5 = load i8, ptr @H5P_init_g, align 1, !tbaa !10, !range !12, !noundef !13
  %6 = trunc i8 %5 to i1
  br i1 %6, label %11, label %7

7:                                                ; preds = %1
  %8 = load i8, ptr @H5_libterm_g, align 1, !tbaa !10, !range !12, !noundef !13
  %9 = trunc i8 %8 to i1
  %10 = xor i1 %9, true
  br label %11

11:                                               ; preds = %7, %1
  %12 = phi i1 [ true, %1 ], [ %10, %7 ]
  %13 = xor i1 %12, true
  %14 = xor i1 %13, true
  %15 = zext i1 %14 to i32
  %16 = sext i32 %15 to i64
  %17 = call i64 @llvm.expect.i64(i64 %16, i64 1)
  %18 = icmp ne i64 %17, 0
  br i1 %18, label %19, label %113

19:                                               ; preds = %11
  %20 = load ptr, ptr %2, align 8, !tbaa !3
  %21 = call i32 @H5P__register_real(ptr noundef %20, ptr noundef @.str.9, i64 noundef 4, ptr noundef @H5O_def_attr_max_compact_g, ptr noundef null, ptr noundef null, ptr noundef null, ptr noundef @H5P__encode_unsigned, ptr noundef @H5P__decode_unsigned, ptr noundef null, ptr noundef null, ptr noundef null, ptr noundef null)
  %22 = icmp slt i32 %21, 0
  br i1 %22, label %23, label %42

23:                                               ; preds = %19
  br label %24

24:                                               ; preds = %23
  br label %25

25:                                               ; preds = %24
  br label %26

26:                                               ; preds = %25
  %27 = load i64, ptr @H5E_PLIST_g, align 8, !tbaa !14
  %28 = load i64, ptr @H5E_CANTINSERT_g, align 8, !tbaa !14
  %29 = call i32 (ptr, ptr, i32, i64, i64, ptr, ...) @H5E_printf_stack(ptr noundef @.str.1, ptr noundef @__func__.H5P__ocrt_reg_prop, i32 noundef 156, i64 noundef %27, i64 noundef %28, ptr noundef @.str.41)
  br label %30

30:                                               ; preds = %26
  br label %31

31:                                               ; preds = %30
  store i8 1, ptr %4, align 1, !tbaa !10
  %32 = load i8, ptr %4, align 1, !tbaa !10, !range !12, !noundef !13
  %33 = trunc i8 %32 to i1
  %34 = zext i1 %33 to i8
  store i8 %34, ptr %4, align 1, !tbaa !10
  br label %35

35:                                               ; preds = %31
  br label %36

36:                                               ; preds = %35
  br label %37

37:                                               ; preds = %36
  store i32 -1, ptr %3, align 4, !tbaa !8
  br label %112

38:                                               ; No predecessors!
  br label %39

39:                                               ; preds = %38
  br label %40

40:                                               ; preds = %39
  br label %41

41:                                               ; preds = %40
  br label %42

42:                                               ; preds = %41, %19
  %43 = load ptr, ptr %2, align 8, !tbaa !3
  %44 = call i32 @H5P__register_real(ptr noundef %43, ptr noundef @.str.11, i64 noundef 4, ptr noundef @H5O_def_attr_min_dense_g, ptr noundef null, ptr noundef null, ptr noundef null, ptr noundef @H5P__encode_unsigned, ptr noundef @H5P__decode_unsigned, ptr noundef null, ptr noundef null, ptr noundef null, ptr noundef null)
  %45 = icmp slt i32 %44, 0
  br i1 %45, label %46, label %65

46:                                               ; preds = %42
  br label %47

47:                                               ; preds = %46
  br label %48

48:                                               ; preds = %47
  br label %49

49:                                               ; preds = %48
  %50 = load i64, ptr @H5E_PLIST_g, align 8, !tbaa !14
  %51 = load i64, ptr @H5E_CANTINSERT_g, align 8, !tbaa !14
  %52 = call i32 (ptr, ptr, i32, i64, i64, ptr, ...) @H5E_printf_stack(ptr noundef @.str.1, ptr noundef @__func__.H5P__ocrt_reg_prop, i32 noundef 162, i64 noundef %50, i64 noundef %51, ptr noundef @.str.41)
  br label %53

53:                                               ; preds = %49
  br label %54

54:                                               ; preds = %53
  store i8 1, ptr %4, align 1, !tbaa !10
  %55 = load i8, ptr %4, align 1, !tbaa !10, !range !12, !noundef !13
  %56 = trunc i8 %55 to i1
  %57 = zext i1 %56 to i8
  store i8 %57, ptr %4, align 1, !tbaa !10
  br label %58

58:                                               ; preds = %54
  br label %59

59:                                               ; preds = %58
  br label %60

60:                                               ; preds = %59
  store i32 -1, ptr %3, align 4, !tbaa !8
  br label %112

61:                                               ; No predecessors!
  br label %62

62:                                               ; preds = %61
  br label %63

63:                                               ; preds = %62
  br label %64

64:                                               ; preds = %63
  br label %65

65:                                               ; preds = %64, %42
  %66 = load ptr, ptr %2, align 8, !tbaa !3
  %67 = call i32 @H5P__register_real(ptr noundef %66, ptr noundef @.str.16, i64 noundef 1, ptr noundef @H5O_def_ohdr_flags_g, ptr noundef null, ptr noundef null, ptr noundef null, ptr noundef @H5P__encode_uint8_t, ptr noundef @H5P__decode_uint8_t, ptr noundef null, ptr noundef null, ptr noundef null, ptr noundef null)
  %68 = icmp slt i32 %67, 0
  br i1 %68, label %69, label %88

69:                                               ; preds = %65
  br label %70

70:                                               ; preds = %69
  br label %71

71:                                               ; preds = %70
  br label %72

72:                                               ; preds = %71
  %73 = load i64, ptr @H5E_PLIST_g, align 8, !tbaa !14
  %74 = load i64, ptr @H5E_CANTINSERT_g, align 8, !tbaa !14
  %75 = call i32 (ptr, ptr, i32, i64, i64, ptr, ...) @H5E_printf_stack(ptr noundef @.str.1, ptr noundef @__func__.H5P__ocrt_reg_prop, i32 noundef 168, i64 noundef %73, i64 noundef %74, ptr noundef @.str.41)
  br label %76

76:                                               ; preds = %72
  br label %77

77:                                               ; preds = %76
  store i8 1, ptr %4, align 1, !tbaa !10
  %78 = load i8, ptr %4, align 1, !tbaa !10, !range !12, !noundef !13
  %79 = trunc i8 %78 to i1
  %80 = zext i1 %79 to i8
  store i8 %80, ptr %4, align 1, !tbaa !10
  br label %81

81:                                               ; preds = %77
  br label %82

82:                                               ; preds = %81
  br label %83

83:                                               ; preds = %82
  store i32 -1, ptr %3, align 4, !tbaa !8
  br label %112

84:                                               ; No predecessors!
  br label %85

85:                                               ; preds = %84
  br label %86

86:                                               ; preds = %85
  br label %87

87:                                               ; preds = %86
  br label %88

88:                                               ; preds = %87, %65
  %89 = load ptr, ptr %2, align 8, !tbaa !3
  %90 = call i32 @H5P__register_real(ptr noundef %89, ptr noundef @.str.19, i64 noundef 72, ptr noundef @H5O_def_pline_g, ptr noundef null, ptr noundef @H5P__ocrt_pipeline_set, ptr noundef @H5P__ocrt_pipeline_get, ptr noundef @H5P__ocrt_pipeline_enc, ptr noundef @H5P__ocrt_pipeline_dec, ptr noundef @H5P__ocrt_pipeline_del, ptr noundef @H5P__ocrt_pipeline_copy, ptr noundef @H5P__ocrt_pipeline_cmp, ptr noundef @H5P__ocrt_pipeline_close)
  %91 = icmp slt i32 %90, 0
  br i1 %91, label %92, label %111

92:                                               ; preds = %88
  br label %93

93:                                               ; preds = %92
  br label %94

94:                                               ; preds = %93
  br label %95

95:                                               ; preds = %94
  %96 = load i64, ptr @H5E_PLIST_g, align 8, !tbaa !14
  %97 = load i64, ptr @H5E_CANTINSERT_g, align 8, !tbaa !14
  %98 = call i32 (ptr, ptr, i32, i64, i64, ptr, ...) @H5E_printf_stack(ptr noundef @.str.1, ptr noundef @__func__.H5P__ocrt_reg_prop, i32 noundef 175, i64 noundef %96, i64 noundef %97, ptr noundef @.str.41)
  br label %99

99:                                               ; preds = %95
  br label %100

100:                                              ; preds = %99
  store i8 1, ptr %4, align 1, !tbaa !10
  %101 = load i8, ptr %4, align 1, !tbaa !10, !range !12, !noundef !13
  %102 = trunc i8 %101 to i1
  %103 = zext i1 %102 to i8
  store i8 %103, ptr %4, align 1, !tbaa !10
  br label %104

104:                                              ; preds = %100
  br label %105

105:                                              ; preds = %104
  br label %106

106:                                              ; preds = %105
  store i32 -1, ptr %3, align 4, !tbaa !8
  br label %112

107:                                              ; No predecessors!
  br label %108

108:                                              ; preds = %107
  br label %109

109:                                              ; preds = %108
  br label %110

110:                                              ; preds = %109
  br label %111

111:                                              ; preds = %110, %88
  br label %112

112:                                              ; preds = %111, %106, %83, %60, %37
  br label %113

113:                                              ; preds = %112, %11
  %114 = load i32, ptr %3, align 4, !tbaa !8
  call void @llvm.lifetime.end.p0(i64 1, ptr %4) #10
  call void @llvm.lifetime.end.p0(i64 4, ptr %3) #10
  ret i32 %114
}