; Function Attrs: nounwind uwtable
define internal range(i32 -1, 1) i32 @H5P__ocrt_reg_prop(ptr noundef %0) #0 {
  %2 = load i8, ptr @H5P_init_g, align 1, !tbaa !3, !range !7, !noundef !8
  %3 = trunc nuw i8 %2 to i1
  %4 = load i8, ptr @H5_libterm_g, align 1, !range !7
  %5 = trunc nuw i8 %4 to i1
  %6 = xor i1 %5, true
  %7 = select i1 %3, i1 true, i1 %6
  br i1 %7, label %8, label %23, !prof !9

8:                                                ; preds = %1
  %9 = tail call i32 @H5P__register_real(ptr noundef %0, ptr noundef nonnull @.str.9, i64 noundef 4, ptr noundef nonnull @H5O_def_attr_max_compact_g, ptr noundef null, ptr noundef null, ptr noundef null, ptr noundef nonnull @H5P__encode_unsigned, ptr noundef nonnull @H5P__decode_unsigned, ptr noundef null, ptr noundef null, ptr noundef null, ptr noundef null) #10
  %10 = icmp slt i32 %9, 0
  br i1 %10, label %.sink.split, label %11

11:                                               ; preds = %8
  %12 = tail call i32 @H5P__register_real(ptr noundef %0, ptr noundef nonnull @.str.11, i64 noundef 4, ptr noundef nonnull @H5O_def_attr_min_dense_g, ptr noundef null, ptr noundef null, ptr noundef null, ptr noundef nonnull @H5P__encode_unsigned, ptr noundef nonnull @H5P__decode_unsigned, ptr noundef null, ptr noundef null, ptr noundef null, ptr noundef null) #10
  %13 = icmp slt i32 %12, 0
  br i1 %13, label %.sink.split, label %14

14:                                               ; preds = %11
  %15 = tail call i32 @H5P__register_real(ptr noundef %0, ptr noundef nonnull @.str.16, i64 noundef 1, ptr noundef nonnull @H5O_def_ohdr_flags_g, ptr noundef null, ptr noundef null, ptr noundef null, ptr noundef nonnull @H5P__encode_uint8_t, ptr noundef nonnull @H5P__decode_uint8_t, ptr noundef null, ptr noundef null, ptr noundef null, ptr noundef null) #10
  %16 = icmp slt i32 %15, 0
  br i1 %16, label %.sink.split, label %17

17:                                               ; preds = %14
  %18 = tail call i32 @H5P__register_real(ptr noundef %0, ptr noundef nonnull @.str.19, i64 noundef 72, ptr noundef nonnull @H5O_def_pline_g, ptr noundef null, ptr noundef nonnull @H5P__ocrt_pipeline_set, ptr noundef nonnull @H5P__ocrt_pipeline_get, ptr noundef nonnull @H5P__ocrt_pipeline_enc, ptr noundef nonnull @H5P__ocrt_pipeline_dec, ptr noundef nonnull @H5P__ocrt_pipeline_del, ptr noundef nonnull @H5P__ocrt_pipeline_copy, ptr noundef nonnull @H5P__ocrt_pipeline_cmp, ptr noundef nonnull @H5P__ocrt_pipeline_close) #10
  %19 = icmp slt i32 %18, 0
  br i1 %19, label %.sink.split, label %23

.sink.split:                                      ; preds = %17, %14, %11, %8
  %.sink = phi i32 [ 156, %8 ], [ 162, %11 ], [ 168, %14 ], [ 175, %17 ]
  %20 = load i64, ptr @H5E_PLIST_g, align 8, !tbaa !10
  %21 = load i64, ptr @H5E_CANTINSERT_g, align 8, !tbaa !10
  %22 = tail call i32 (ptr, ptr, i32, i64, i64, ptr, ...) @H5E_printf_stack(ptr noundef nonnull @.str.1, ptr noundef nonnull @__func__.H5P__ocrt_reg_prop, i32 noundef %.sink, i64 noundef %20, i64 noundef %21, ptr noundef nonnull @.str.41) #10
  br label %23

23:                                               ; preds = %.sink.split, %17, %1
  %.0 = phi i32 [ 0, %17 ], [ 0, %1 ], [ -1, %.sink.split ]
  ret i32 %.0
}